target datalayout = "e-m:e-p270:32:32-p271:32:32-p272:64:64-i64:64-i128:128-f80:128-n8:16:32:64-S128"
target triple = "x86_64-pc-linux-gnu"

%struct.PACKET = type { ptr, i64 }

@.str.25 = private unnamed_addr constant [29 x i8] c"../openssl/test/packettest.c\00", align 1
@.str.89 = private unnamed_addr constant [5 x i8] c"data\00", align 1
@.str.93 = private unnamed_addr constant [37 x i8] c"../openssl/include/internal/packet.h\00", align 1
@.str.94 = private unnamed_addr constant [48 x i8] c"PACKET_buf_init(&pkt, (unsigned char*)buf1, 10)\00", align 1
@.str.95 = private unnamed_addr constant [28 x i8] c"PACKET_strndup(&pkt, &data)\00", align 1
@.str.96 = private unnamed_addr constant [13 x i8] c"strlen(data)\00", align 1
@.str.97 = private unnamed_addr constant [3 x i8] c"10\00", align 1
@.str.98 = private unnamed_addr constant [5 x i8] c"buf1\00", align 1
@.str.99 = private unnamed_addr constant [48 x i8] c"PACKET_buf_init(&pkt, (unsigned char*)buf2, 10)\00", align 1
@.str.100 = private unnamed_addr constant [2 x i8] c"5\00", align 1
@.str.101 = private unnamed_addr constant [5 x i8] c"buf2\00", align 1

; Function Attrs: inlinehint nounwind uwtable
define internal i64 @PACKET_remaining(ptr noundef %0) #4 {
  %2 = alloca ptr, align 8
  store ptr %0, ptr %2, align 8, !tbaa !33
  %3 = load ptr, ptr %2, align 8, !tbaa !33
  %4 = getelementptr inbounds nuw %struct.PACKET, ptr %3, i32 0, i32 1
  %5 = load i64, ptr %4, align 8, !tbaa !31
  ret i64 %5
}

; Function Attrs: inlinehint nounwind uwtable
define internal i32 @PACKET_strndup(ptr noundef %0, ptr noundef %1) #4 {
  %3 = alloca ptr, align 8
  %4 = alloca ptr, align 8
  store ptr %0, ptr %3, align 8, !tbaa !33
  store ptr %1, ptr %4, align 8, !tbaa !38
  %5 = load ptr, ptr %4, align 8, !tbaa !38
  %6 = load ptr, ptr %5, align 8, !tbaa !13
  call void @CRYPTO_free(ptr noundef %6, ptr noundef @.str.93, i32 noundef 483)
  %7 = load ptr, ptr %3, align 8, !tbaa !33
  %8 = getelementptr inbounds nuw %struct.PACKET, ptr %7, i32 0, i32 0
  %9 = load ptr, ptr %8, align 8, !tbaa !29
  %10 = load ptr, ptr %3, align 8, !tbaa !33
  %11 = call i64 @PACKET_remaining(ptr noundef %10)
  %12 = call noalias ptr @CRYPTO_strndup(ptr noundef %9, i64 noundef %11, ptr noundef @.str.93, i32 noundef 486)
  %13 = load ptr, ptr %4, align 8, !tbaa !38
  store ptr %12, ptr %13, align 8, !tbaa !13
  %14 = load ptr, ptr %4, align 8, !tbaa !38
  %15 = load ptr, ptr %14, align 8, !tbaa !13
  %16 = icmp ne ptr %15, null
  %17 = zext i1 %16 to i32
  ret i32 %17
}

; Function Attrs: inlinehint nounwind uwtable
define internal i32 @PACKET_buf_init(ptr noundef %0, ptr noundef %1, i64 noundef %2) #4 {
  %4 = alloca i32, align 4
  %5 = alloca ptr, align 8
  %6 = alloca ptr, align 8
  %7 = alloca i64, align 8
  store ptr %0, ptr %5, align 8, !tbaa !33
  store ptr %1, ptr %6, align 8, !tbaa !13
  store i64 %2, ptr %7, align 8, !tbaa !11
  %8 = load i64, ptr %7, align 8, !tbaa !11
  %9 = icmp ugt i64 %8, 9223372036854775807
  br i1 %9, label %10, label %11

10:                                               ; preds = %3
  store i32 0, ptr %4, align 4
  br label %18

11:                                               ; preds = %3
  %12 = load ptr, ptr %6, align 8, !tbaa !13
  %13 = load ptr, ptr %5, align 8, !tbaa !33
  %14 = getelementptr inbounds nuw %struct.PACKET, ptr %13, i32 0, i32 0
  store ptr %12, ptr %14, align 8, !tbaa !29
  %15 = load i64, ptr %7, align 8, !tbaa !11
  %16 = load ptr, ptr %5, align 8, !tbaa !33
  %17 = getelementptr inbounds nuw %struct.PACKET, ptr %16, i32 0, i32 1
  store i64 %15, ptr %17, align 8, !tbaa !31
  store i32 1, ptr %4, align 4
  br label %18

18:                                               ; preds = %11, %10
  %19 = load i32, ptr %4, align 4
  ret i32 %19
}

; Function Attrs: nounwind uwtable
define internal i32 @test_PACKET_strndup() #0 {
  %1 = alloca [10 x i8], align 1
  %2 = alloca [10 x i8], align 1
  %3 = alloca ptr, align 8
  %4 = alloca %struct.PACKET, align 8
  %5 = alloca i32, align 4
  call void @llvm.lifetime.start.p0(i64 10, ptr %1) #7
  call void @llvm.lifetime.start.p0(i64 10, ptr %2) #7
  call void @llvm.lifetime.start.p0(i64 8, ptr %3) #7
  store ptr null, ptr %3, align 8, !tbaa !13
  call void @llvm.lifetime.start.p0(i64 16, ptr %4) #7
  call void @llvm.lifetime.start.p0(i64 4, ptr %5) #7
  store i32 0, ptr %5, align 4, !tbaa !4
  %6 = getelementptr inbounds [10 x i8], ptr %1, i64 0, i64 0
  call void @llvm.memset.p0.i64(ptr align 1 %6, i8 120, i64 10, i1 false)
  %7 = getelementptr inbounds [10 x i8], ptr %2, i64 0, i64 0
  call void @llvm.memset.p0.i64(ptr align 1 %7, i8 121, i64 10, i1 false)
  %8 = getelementptr inbounds [10 x i8], ptr %2, i64 0, i64 5
  store i8 0, ptr %8, align 1, !tbaa !8
  %9 = getelementptr inbounds [10 x i8], ptr %1, i64 0, i64 0
  %10 = call i32 @PACKET_buf_init(ptr noundef %4, ptr noundef %9, i64 noundef 10)
  %11 = icmp ne i32 %10, 0
  %12 = zext i1 %11 to i32
  %13 = call i32 @test_true(ptr noundef @.str.25, i32 noundef 252, ptr noundef @.str.94, i32 noundef %12)
  %14 = icmp ne i32 %13, 0
  br i1 %14, label %15, label %54

15:                                               ; preds = %0
  %16 = call i32 @PACKET_strndup(ptr noundef %4, ptr noundef %3)
  %17 = icmp ne i32 %16, 0
  %18 = zext i1 %17 to i32
  %19 = call i32 @test_true(ptr noundef @.str.25, i32 noundef 253, ptr noundef @.str.95, i32 noundef %18)
  %20 = icmp ne i32 %19, 0
  br i1 %20, label %21, label %54

21:                                               ; preds = %15
  %22 = load ptr, ptr %3, align 8, !tbaa !13
  %23 = call i64 @strlen(ptr noundef %22) #8
  %24 = call i32 @test_size_t_eq(ptr noundef @.str.25, i32 noundef 254, ptr noundef @.str.96, ptr noundef @.str.97, i64 noundef %23, i64 noundef 10)
  %25 = icmp ne i32 %24, 0
  br i1 %25, label %26, label %54

26:                                               ; preds = %21
  %27 = load ptr, ptr %3, align 8, !tbaa !13
  %28 = getelementptr inbounds [10 x i8], ptr %1, i64 0, i64 0
  %29 = call i32 @test_strn_eq(ptr noundef @.str.25, i32 noundef 255, ptr noundef @.str.89, ptr noundef @.str.98, ptr noundef %27, i64 noundef 10, ptr noundef %28, i64 noundef 10)
  %30 = icmp ne i32 %29, 0
  br i1 %30, label %31, label %54

31:                                               ; preds = %26
  %32 = getelementptr inbounds [10 x i8], ptr %2, i64 0, i64 0
  %33 = call i32 @PACKET_buf_init(ptr noundef %4, ptr noundef %32, i64 noundef 10)
  %34 = icmp ne i32 %33, 0
  %35 = zext i1 %34 to i32
  %36 = call i32 @test_true(ptr noundef @.str.25, i32 noundef 256, ptr noundef @.str.99, i32 noundef %35)
  %37 = icmp ne i32 %36, 0
  br i1 %37, label %38, label %54

38:                                               ; preds = %31
  %39 = call i32 @PACKET_strndup(ptr noundef %4, ptr noundef %3)
  %40 = icmp ne i32 %39, 0
  %41 = zext i1 %40 to i32
  %42 = call i32 @test_true(ptr noundef @.str.25, i32 noundef 257, ptr noundef @.str.95, i32 noundef %41)
  %43 = icmp ne i32 %42, 0
  br i1 %43, label %44, label %54

44:                                               ; preds = %38
  %45 = load ptr, ptr %3, align 8, !tbaa !13
  %46 = call i64 @strlen(ptr noundef %45) #8
  %47 = call i32 @test_size_t_eq(ptr noundef @.str.25, i32 noundef 258, ptr noundef @.str.96, ptr noundef @.str.100, i64 noundef %46, i64 noundef 5)
  %48 = icmp ne i32 %47, 0
  br i1 %48, label %49, label %54

49:                                               ; preds = %44
  %50 = load ptr, ptr %3, align 8, !tbaa !13
  %51 = getelementptr inbounds [10 x i8], ptr %2, i64 0, i64 0
  %52 = call i32 @test_str_eq(ptr noundef @.str.25, i32 noundef 259, ptr noundef @.str.89, ptr noundef @.str.101, ptr noundef %50, ptr noundef %51)
  %53 = icmp ne i32 %52, 0
  br i1 %53, label %55, label %54

54:                                               ; preds = %49, %44, %38, %31, %26, %21, %15, %0
  br label %56

55:                                               ; preds = %49
  store i32 1, ptr %5, align 4, !tbaa !4
  br label %56

56:                                               ; preds = %55, %54
  %57 = load ptr, ptr %3, align 8, !tbaa !13
  call void @CRYPTO_free(ptr noundef %57, ptr noundef @.str.25, i32 noundef 264)
  %58 = load i32, ptr %5, align 4, !tbaa !4
  call void @llvm.lifetime.end.p0(i64 4, ptr %5) #7
  call void @llvm.lifetime.end.p0(i64 16, ptr %4) #7
  call void @llvm.lifetime.end.p0(i64 8, ptr %3) #7
  call void @llvm.lifetime.end.p0(i64 10, ptr %2) #7
  call void @llvm.lifetime.end.p0(i64 10, ptr %1) #7
  ret i32 %58
}