; Function Attrs: nounwind uwtable
define internal range(i32 0, 2) i32 @test_PACKET_strndup() #0 {
  %1 = alloca [10 x i8], align 1
  %2 = alloca [10 x i8], align 1
  call void @llvm.lifetime.start.p0(i64 10, ptr nonnull %1) #6
  call void @llvm.lifetime.start.p0(i64 10, ptr nonnull %2) #6
  call void @llvm.memset.p0.i64(ptr noundef nonnull align 1 dereferenceable(10) %1, i8 120, i64 10, i1 false)
  call void @llvm.memset.p0.i64(ptr noundef nonnull align 1 dereferenceable(10) %2, i8 121, i64 10, i1 false)
  %3 = getelementptr inbounds nuw i8, ptr %2, i64 5
  store i8 0, ptr %3, align 1, !tbaa !4
  %4 = tail call i32 @test_true(ptr noundef nonnull @.str.25, i32 noundef 252, ptr noundef nonnull @.str.94, i32 noundef 1) #6
  %.not = icmp eq i32 %4, 0
  br i1 %.not, label %27, label %5

5:                                                ; preds = %0
  tail call void @CRYPTO_free(ptr noundef null, ptr noundef nonnull @.str.93, i32 noundef 483) #6
  %6 = call noalias ptr @CRYPTO_strndup(ptr noundef nonnull %1, i64 noundef 10, ptr noundef nonnull @.str.93, i32 noundef 486) #6
  %7 = icmp ne ptr %6, null
  %8 = zext i1 %7 to i32
  %9 = call i32 @test_true(ptr noundef nonnull @.str.25, i32 noundef 253, ptr noundef nonnull @.str.95, i32 noundef %8) #6
  %.not1 = icmp eq i32 %9, 0
  br i1 %.not1, label %27, label %10

10:                                               ; preds = %5
  %11 = call i64 @strlen(ptr noundef nonnull dereferenceable(1) %6) #7
  %12 = call i32 @test_size_t_eq(ptr noundef nonnull @.str.25, i32 noundef 254, ptr noundef nonnull @.str.96, ptr noundef nonnull @.str.97, i64 noundef %11, i64 noundef 10) #6
  %.not2 = icmp eq i32 %12, 0
  br i1 %.not2, label %27, label %13

13:                                               ; preds = %10
  %14 = call i32 @test_strn_eq(ptr noundef nonnull @.str.25, i32 noundef 255, ptr noundef nonnull @.str.89, ptr noundef nonnull @.str.98, ptr noundef nonnull %6, i64 noundef 10, ptr noundef nonnull %1, i64 noundef 10) #6
  %.not3 = icmp eq i32 %14, 0
  br i1 %.not3, label %27, label %15

15:                                               ; preds = %13
  %16 = call i32 @test_true(ptr noundef nonnull @.str.25, i32 noundef 256, ptr noundef nonnull @.str.99, i32 noundef 1) #6
  %.not4 = icmp eq i32 %16, 0
  br i1 %.not4, label %27, label %17

17:                                               ; preds = %15
  call void @CRYPTO_free(ptr noundef nonnull %6, ptr noundef nonnull @.str.93, i32 noundef 483) #6
  %18 = call noalias ptr @CRYPTO_strndup(ptr noundef nonnull %2, i64 noundef 10, ptr noundef nonnull @.str.93, i32 noundef 486) #6
  %19 = icmp ne ptr %18, null
  %20 = zext i1 %19 to i32
  %21 = call i32 @test_true(ptr noundef nonnull @.str.25, i32 noundef 257, ptr noundef nonnull @.str.95, i32 noundef %20) #6
  %.not5 = icmp eq i32 %21, 0
  br i1 %.not5, label %27, label %22

22:                                               ; preds = %17
  %23 = call i64 @strlen(ptr noundef nonnull dereferenceable(1) %18) #7
  %24 = call i32 @test_size_t_eq(ptr noundef nonnull @.str.25, i32 noundef 258, ptr noundef nonnull @.str.96, ptr noundef nonnull @.str.100, i64 noundef %23, i64 noundef 5) #6
  %.not6 = icmp eq i32 %24, 0
  br i1 %.not6, label %27, label %25

25:                                               ; preds = %22
  %26 = call i32 @test_str_eq(ptr noundef nonnull @.str.25, i32 noundef 259, ptr noundef nonnull @.str.89, ptr noundef nonnull @.str.101, ptr noundef nonnull %18, ptr noundef nonnull %2) #6
  %.not7 = icmp ne i32 %26, 0
  %spec.select = zext i1 %.not7 to i32
  br label %27

27:                                               ; preds = %25, %0, %5, %10, %13, %15, %17, %22
  %.018 = phi ptr [ null, %0 ], [ %6, %5 ], [ %6, %10 ], [ %6, %13 ], [ %6, %15 ], [ %18, %17 ], [ %18, %22 ], [ %18, %25 ]
  %.0 = phi i32 [ 0, %0 ], [ 0, %5 ], [ 0, %10 ], [ 0, %13 ], [ 0, %15 ], [ 0, %17 ], [ 0, %22 ], [ %spec.select, %25 ]
  call void @CRYPTO_free(ptr noundef %.018, ptr noundef nonnull @.str.25, i32 noundef 264) #6
  call void @llvm.lifetime.end.p0(i64 10, ptr nonnull %2) #6
  call void @llvm.lifetime.end.p0(i64 10, ptr nonnull %1) #6
  ret i32 %.0
}